; Function Attrs: mustprogress nounwind uwtable
define dso_local void @_ZN4llvm2gi23emitEncodingMacrosUndefERNS_11raw_ostreamE(ptr noundef nonnull align 8 dereferenceable(48) %0) local_unnamed_addr #0 {
  %2 = getelementptr inbounds nuw i8, ptr %0, i64 24
  %3 = load ptr, ptr %2, align 8
  %4 = getelementptr inbounds nuw i8, ptr %0, i64 32
  %5 = load ptr, ptr %4, align 8
  %6 = ptrtoint ptr %3 to i64
  %7 = ptrtoint ptr %5 to i64
  %8 = sub i64 %6, %7
  %9 = icmp ult i64 %8, 7
  br i1 %9, label %10, label %12

10:                                               ; preds = %1
  %11 = tail call noundef nonnull align 8 dereferenceable(48) ptr @_ZN4llvm11raw_ostream5writeEPKcm(ptr noundef nonnull align 8 dereferenceable(48) %0, ptr noundef nonnull @.str.16, i64 noundef 7) #30
  %.phi.trans.insert = getelementptr inbounds nuw i8, ptr %11, i64 32
  %.pre = load ptr, ptr %.phi.trans.insert, align 8
  br label %_ZN4llvm11raw_ostreamlsEPKc.exit

12:                                               ; preds = %1
  tail call void @llvm.memcpy.p0.p0.i64(ptr noundef nonnull align 1 dereferenceable(7) %5, ptr noundef nonnull align 1 dereferenceable(7) @.str.16, i64 7, i1 false)
  %13 = load ptr, ptr %4, align 8
  %14 = getelementptr inbounds i8, ptr %13, i64 7
  store ptr %14, ptr %4, align 8
  br label %_ZN4llvm11raw_ostreamlsEPKc.exit

_ZN4llvm11raw_ostreamlsEPKc.exit:                 ; preds = %10, %12
  %15 = phi ptr [ %.pre, %10 ], [ %14, %12 ]
  %.0.i.i = phi ptr [ %11, %10 ], [ %0, %12 ]
  %16 = getelementptr inbounds nuw i8, ptr %.0.i.i, i64 24
  %17 = load ptr, ptr %16, align 8
  %18 = ptrtoint ptr %17 to i64
  %19 = ptrtoint ptr %15 to i64
  %20 = sub i64 %18, %19
  %21 = icmp ult i64 %20, 11
  br i1 %21, label %22, label %24

22:                                               ; preds = %_ZN4llvm11raw_ostreamlsEPKc.exit
  %23 = tail call noundef nonnull align 8 dereferenceable(48) ptr @_ZN4llvm11raw_ostream5writeEPKcm(ptr noundef nonnull align 8 dereferenceable(48) %.0.i.i, ptr noundef nonnull @.str.230, i64 noundef 11) #30
  %.phi.trans.insert24 = getelementptr inbounds nuw i8, ptr %23, i64 32
  %.pre25 = load ptr, ptr %.phi.trans.insert24, align 8
  br label %_ZN4llvm11raw_ostreamlsENS_9StringRefE.exit

24:                                               ; preds = %_ZN4llvm11raw_ostreamlsEPKc.exit
  %25 = getelementptr inbounds nuw i8, ptr %.0.i.i, i64 32
  tail call void @llvm.memcpy.p0.p0.i64(ptr noundef nonnull align 1 dereferenceable(11) %15, ptr noundef nonnull align 1 dereferenceable(11) @.str.230, i64 11, i1 false)
  %26 = load ptr, ptr %25, align 8
  %27 = getelementptr inbounds i8, ptr %26, i64 11
  store ptr %27, ptr %25, align 8
  br label %_ZN4llvm11raw_ostreamlsENS_9StringRefE.exit

_ZN4llvm11raw_ostreamlsENS_9StringRefE.exit:      ; preds = %22, %24
  %28 = phi ptr [ %.pre25, %22 ], [ %27, %24 ]
  %.0.i = phi ptr [ %23, %22 ], [ %.0.i.i, %24 ]
  %29 = getelementptr inbounds nuw i8, ptr %.0.i, i64 24
  %30 = load ptr, ptr %29, align 8
  %31 = ptrtoint ptr %30 to i64
  %32 = ptrtoint ptr %28 to i64
  %33 = sub i64 %31, %32
  %34 = icmp ult i64 %33, 2
  br i1 %34, label %35, label %37

35:                                               ; preds = %_ZN4llvm11raw_ostreamlsENS_9StringRefE.exit
  %36 = tail call noundef nonnull align 8 dereferenceable(48) ptr @_ZN4llvm11raw_ostream5writeEPKcm(ptr noundef nonnull align 8 dereferenceable(48) %.0.i, ptr noundef nonnull @.str.17, i64 noundef 2) #30
  %.phi.trans.insert26 = getelementptr inbounds nuw i8, ptr %36, i64 32
  %.pre27 = load ptr, ptr %.phi.trans.insert26, align 8
  br label %_ZN4llvm11raw_ostreamlsEPKc.exit7

37:                                               ; preds = %_ZN4llvm11raw_ostreamlsENS_9StringRefE.exit
  %38 = getelementptr inbounds nuw i8, ptr %.0.i, i64 32
  store i16 2610, ptr %28, align 1
  %39 = load ptr, ptr %38, align 8
  %40 = getelementptr inbounds i8, ptr %39, i64 2
  store ptr %40, ptr %38, align 8
  br label %_ZN4llvm11raw_ostreamlsEPKc.exit7

_ZN4llvm11raw_ostreamlsEPKc.exit7:                ; preds = %35, %37
  %41 = phi ptr [ %.pre27, %35 ], [ %40, %37 ]
  %.0.i.i6 = phi ptr [ %36, %35 ], [ %.0.i, %37 ]
  %42 = getelementptr inbounds nuw i8, ptr %.0.i.i6, i64 24
  %43 = load ptr, ptr %42, align 8
  %44 = ptrtoint ptr %43 to i64
  %45 = ptrtoint ptr %41 to i64
  %46 = sub i64 %44, %45
  %47 = icmp ult i64 %46, 7
  br i1 %47, label %48, label %50

48:                                               ; preds = %_ZN4llvm11raw_ostreamlsEPKc.exit7
  %49 = tail call noundef nonnull align 8 dereferenceable(48) ptr @_ZN4llvm11raw_ostream5writeEPKcm(ptr noundef nonnull align 8 dereferenceable(48) %.0.i.i6, ptr noundef nonnull @.str.16, i64 noundef 7) #30
  %.phi.trans.insert28 = getelementptr inbounds nuw i8, ptr %49, i64 32
  %.pre29 = load ptr, ptr %.phi.trans.insert28, align 8
  br label %_ZN4llvm11raw_ostreamlsEPKc.exit10

50:                                               ; preds = %_ZN4llvm11raw_ostreamlsEPKc.exit7
  %51 = getelementptr inbounds nuw i8, ptr %.0.i.i6, i64 32
  tail call void @llvm.memcpy.p0.p0.i64(ptr noundef nonnull align 1 dereferenceable(7) %41, ptr noundef nonnull align 1 dereferenceable(7) @.str.16, i64 7, i1 false)
  %52 = load ptr, ptr %51, align 8
  %53 = getelementptr inbounds i8, ptr %52, i64 7
  store ptr %53, ptr %51, align 8
  br label %_ZN4llvm11raw_ostreamlsEPKc.exit10

_ZN4llvm11raw_ostreamlsEPKc.exit10:               ; preds = %48, %50
  %54 = phi ptr [ %.pre29, %48 ], [ %53, %50 ]
  %.0.i.i9 = phi ptr [ %49, %48 ], [ %.0.i.i6, %50 ]
  %55 = getelementptr inbounds nuw i8, ptr %.0.i.i9, i64 24
  %56 = load ptr, ptr %55, align 8
  %57 = ptrtoint ptr %56 to i64
  %58 = ptrtoint ptr %54 to i64
  %59 = sub i64 %57, %58
  %60 = icmp ult i64 %59, 11
  br i1 %60, label %61, label %63

61:                                               ; preds = %_ZN4llvm11raw_ostreamlsEPKc.exit10
  %62 = tail call noundef nonnull align 8 dereferenceable(48) ptr @_ZN4llvm11raw_ostream5writeEPKcm(ptr noundef nonnull align 8 dereferenceable(48) %.0.i.i9, ptr noundef nonnull @.str.230, i64 noundef 11) #30
  %.phi.trans.insert30 = getelementptr inbounds nuw i8, ptr %62, i64 32
  %.pre31 = load ptr, ptr %.phi.trans.insert30, align 8
  br label %_ZN4llvm11raw_ostreamlsENS_9StringRefE.exit12

63:                                               ; preds = %_ZN4llvm11raw_ostreamlsEPKc.exit10
  %64 = getelementptr inbounds nuw i8, ptr %.0.i.i9, i64 32
  tail call void @llvm.memcpy.p0.p0.i64(ptr noundef nonnull align 1 dereferenceable(11) %54, ptr noundef nonnull align 1 dereferenceable(11) @.str.230, i64 11, i1 false)
  %65 = load ptr, ptr %64, align 8
  %66 = getelementptr inbounds i8, ptr %65, i64 11
  store ptr %66, ptr %64, align 8
  br label %_ZN4llvm11raw_ostreamlsENS_9StringRefE.exit12

_ZN4llvm11raw_ostreamlsENS_9StringRefE.exit12:    ; preds = %61, %63
  %67 = phi ptr [ %.pre31, %61 ], [ %66, %63 ]
  %.0.i11 = phi ptr [ %62, %61 ], [ %.0.i.i9, %63 ]
  %68 = getelementptr inbounds nuw i8, ptr %.0.i11, i64 24
  %69 = load ptr, ptr %68, align 8
  %70 = ptrtoint ptr %69 to i64
  %71 = ptrtoint ptr %67 to i64
  %72 = sub i64 %70, %71
  %73 = icmp ult i64 %72, 2
  br i1 %73, label %74, label %76

74:                                               ; preds = %_ZN4llvm11raw_ostreamlsENS_9StringRefE.exit12
  %75 = tail call noundef nonnull align 8 dereferenceable(48) ptr @_ZN4llvm11raw_ostream5writeEPKcm(ptr noundef nonnull align 8 dereferenceable(48) %.0.i11, ptr noundef nonnull @.str.18, i64 noundef 2) #30
  %.phi.trans.insert32 = getelementptr inbounds nuw i8, ptr %75, i64 32
  %.pre33 = load ptr, ptr %.phi.trans.insert32, align 8
  br label %_ZN4llvm11raw_ostreamlsEPKc.exit15

76:                                               ; preds = %_ZN4llvm11raw_ostreamlsENS_9StringRefE.exit12
  %77 = getelementptr inbounds nuw i8, ptr %.0.i11, i64 32
  store i16 2612, ptr %67, align 1
  %78 = load ptr, ptr %77, align 8
  %79 = getelementptr inbounds i8, ptr %78, i64 2
  store ptr %79, ptr %77, align 8
  br label %_ZN4llvm11raw_ostreamlsEPKc.exit15

_ZN4llvm11raw_ostreamlsEPKc.exit15:               ; preds = %74, %76
  %80 = phi ptr [ %.pre33, %74 ], [ %79, %76 ]
  %.0.i.i14 = phi ptr [ %75, %74 ], [ %.0.i11, %76 ]
  %81 = getelementptr inbounds nuw i8, ptr %.0.i.i14, i64 24
  %82 = load ptr, ptr %81, align 8
  %83 = ptrtoint ptr %82 to i64
  %84 = ptrtoint ptr %80 to i64
  %85 = sub i64 %83, %84
  %86 = icmp ult i64 %85, 7
  br i1 %86, label %87, label %89

87:                                               ; preds = %_ZN4llvm11raw_ostreamlsEPKc.exit15
  %88 = tail call noundef nonnull align 8 dereferenceable(48) ptr @_ZN4llvm11raw_ostream5writeEPKcm(ptr noundef nonnull align 8 dereferenceable(48) %.0.i.i14, ptr noundef nonnull @.str.16, i64 noundef 7) #30
  %.phi.trans.insert34 = getelementptr inbounds nuw i8, ptr %88, i64 32
  %.pre35 = load ptr, ptr %.phi.trans.insert34, align 8
  br label %_ZN4llvm11raw_ostreamlsEPKc.exit18

89:                                               ; preds = %_ZN4llvm11raw_ostreamlsEPKc.exit15
  %90 = getelementptr inbounds nuw i8, ptr %.0.i.i14, i64 32
  tail call void @llvm.memcpy.p0.p0.i64(ptr noundef nonnull align 1 dereferenceable(7) %80, ptr noundef nonnull align 1 dereferenceable(7) @.str.16, i64 7, i1 false)
  %91 = load ptr, ptr %90, align 8
  %92 = getelementptr inbounds i8, ptr %91, i64 7
  store ptr %92, ptr %90, align 8
  br label %_ZN4llvm11raw_ostreamlsEPKc.exit18

_ZN4llvm11raw_ostreamlsEPKc.exit18:               ; preds = %87, %89
  %93 = phi ptr [ %.pre35, %87 ], [ %92, %89 ]
  %.0.i.i17 = phi ptr [ %88, %87 ], [ %.0.i.i14, %89 ]
  %94 = getelementptr inbounds nuw i8, ptr %.0.i.i17, i64 24
  %95 = load ptr, ptr %94, align 8
  %96 = ptrtoint ptr %95 to i64
  %97 = ptrtoint ptr %93 to i64
  %98 = sub i64 %96, %97
  %99 = icmp ult i64 %98, 11
  br i1 %99, label %100, label %102

100:                                              ; preds = %_ZN4llvm11raw_ostreamlsEPKc.exit18
  %101 = tail call noundef nonnull align 8 dereferenceable(48) ptr @_ZN4llvm11raw_ostream5writeEPKcm(ptr noundef nonnull align 8 dereferenceable(48) %.0.i.i17, ptr noundef nonnull @.str.230, i64 noundef 11) #30
  %.phi.trans.insert36 = getelementptr inbounds nuw i8, ptr %101, i64 32
  %.pre37 = load ptr, ptr %.phi.trans.insert36, align 8
  br label %_ZN4llvm11raw_ostreamlsENS_9StringRefE.exit20

102:                                              ; preds = %_ZN4llvm11raw_ostreamlsEPKc.exit18
  %103 = getelementptr inbounds nuw i8, ptr %.0.i.i17, i64 32
  tail call void @llvm.memcpy.p0.p0.i64(ptr noundef nonnull align 1 dereferenceable(11) %93, ptr noundef nonnull align 1 dereferenceable(11) @.str.230, i64 11, i1 false)
  %104 = load ptr, ptr %103, align 8
  %105 = getelementptr inbounds i8, ptr %104, i64 11
  store ptr %105, ptr %103, align 8
  br label %_ZN4llvm11raw_ostreamlsENS_9StringRefE.exit20

_ZN4llvm11raw_ostreamlsENS_9StringRefE.exit20:    ; preds = %100, %102
  %106 = phi ptr [ %.pre37, %100 ], [ %105, %102 ]
  %.0.i19 = phi ptr [ %101, %100 ], [ %.0.i.i17, %102 ]
  %107 = getelementptr inbounds nuw i8, ptr %.0.i19, i64 24
  %108 = load ptr, ptr %107, align 8
  %109 = ptrtoint ptr %108 to i64
  %110 = ptrtoint ptr %106 to i64
  %111 = sub i64 %109, %110
  %112 = icmp ult i64 %111, 2
  br i1 %112, label %113, label %115

113:                                              ; preds = %_ZN4llvm11raw_ostreamlsENS_9StringRefE.exit20
  %114 = tail call noundef nonnull align 8 dereferenceable(48) ptr @_ZN4llvm11raw_ostream5writeEPKcm(ptr noundef nonnull align 8 dereferenceable(48) %.0.i19, ptr noundef nonnull @.str.19, i64 noundef 2) #30
  br label %_ZN4llvm11raw_ostreamlsEPKc.exit23

115:                                              ; preds = %_ZN4llvm11raw_ostreamlsENS_9StringRefE.exit20
  %116 = getelementptr inbounds nuw i8, ptr %.0.i19, i64 32
  store i16 2616, ptr %106, align 1
  %117 = load ptr, ptr %116, align 8
  %118 = getelementptr inbounds i8, ptr %117, i64 2
  store ptr %118, ptr %116, align 8
  br label %_ZN4llvm11raw_ostreamlsEPKc.exit23

_ZN4llvm11raw_ostreamlsEPKc.exit23:               ; preds = %113, %115
  ret void
}